; ModuleID = '54/993.c'
source_filename = "54/993.c"
target datalayout = "e-m:e-p270:32:32-p271:32:32-p272:64:64-i64:64-f80:128-n8:16:32:64-S128"
target triple = "x86_64-pc-linux-gnu"

@.str = private unnamed_addr constant [5 x i8] c"%d%d\00", align 1
@.str.1 = private unnamed_addr constant [3 x i8] c"%d\00", align 1

; Function Attrs: noinline nounwind uwtable
define dso_local i32 @main() #0 {
  %1 = alloca i32, align 4
  %2 = alloca i32, align 4
  %3 = alloca i32, align 4
  %4 = alloca i32, align 4
  %5 = alloca i32, align 4
  store i32 0, i32* %1, align 4
  %6 = call i32 (i8*, ...) @__isoc99_scanf(i8* getelementptr inbounds ([5 x i8], [5 x i8]* @.str, i64 0, i64 0), i32* %2, i32* %3)
  %7 = load i32, i32* %2, align 4
  store i32 %7, i32* %5, align 4
  store i32 1, i32* %4, align 4
  br label %8

8:                                                ; preds = %20, %0
  br i1 true, label %9, label %23

9:                                                ; preds = %8
  %10 = load i32, i32* %2, align 4
  %11 = load i32, i32* %3, align 4
  %12 = load i32, i32* %4, align 4
  %13 = load i32, i32* %5, align 4
  %14 = call i32 @allocate(i32 %10, i32 %11, i32 %12, i32 %13)
  %15 = icmp ne i32 %14, 0
  br i1 %15, label %16, label %19

16:                                               ; preds = %9
  %17 = load i32, i32* %4, align 4
  %18 = call i32 (i8*, ...) @printf(i8* getelementptr inbounds ([3 x i8], [3 x i8]* @.str.1, i64 0, i64 0), i32 %17)
  br label %23

19:                                               ; preds = %9
  br label %20

20:                                               ; preds = %19
  %21 = load i32, i32* %4, align 4
  %22 = add nsw i32 %21, 1
  store i32 %22, i32* %4, align 4
  br label %8

23:                                               ; preds = %16, %8
  ret i32 0
}

declare dso_local i32 @__isoc99_scanf(i8*, ...) #1

; Function Attrs: noinline nounwind uwtable
define dso_local i32 @allocate(i32 %0, i32 %1, i32 %2, i32 %3) #0 {
  %5 = alloca i32, align 4
  %6 = alloca i32, align 4
  %7 = alloca i32, align 4
  %8 = alloca i32, align 4
  %9 = alloca i32, align 4
  store i32 %0, i32* %6, align 4
  store i32 %1, i32* %7, align 4
  store i32 %2, i32* %8, align 4
  store i32 %3, i32* %9, align 4
  %10 = load i32, i32* %8, align 4
  %11 = load i32, i32* %9, align 4
  %12 = sdiv i32 %10, %11
  %13 = icmp eq i32 %12, 0
  br i1 %13, label %20, label %14

14:                                               ; preds = %4
  %15 = load i32, i32* %8, align 4
  %16 = load i32, i32* %9, align 4
  %17 = srem i32 %15, %16
  %18 = load i32, i32* %7, align 4
  %19 = icmp ne i32 %17, %18
  br i1 %19, label %20, label %21

20:                                               ; preds = %14, %4
  store i32 0, i32* %5, align 4
  br label %38

21:                                               ; preds = %14
  %22 = load i32, i32* %6, align 4
  %23 = icmp eq i32 %22, 1
  br i1 %23, label %24, label %25

24:                                               ; preds = %21
  store i32 1, i32* %5, align 4
  br label %38

25:                                               ; preds = %21
  %26 = load i32, i32* %6, align 4
  %27 = sub nsw i32 %26, 1
  %28 = load i32, i32* %7, align 4
  %29 = load i32, i32* %8, align 4
  %30 = load i32, i32* %8, align 4
  %31 = load i32, i32* %9, align 4
  %32 = sdiv i32 %30, %31
  %33 = sub nsw i32 %29, %32
  %34 = load i32, i32* %7, align 4
  %35 = sub nsw i32 %33, %34
  %36 = load i32, i32* %9, align 4
  %37 = call i32 @allocate(i32 %27, i32 %28, i32 %35, i32 %36)
  store i32 %37, i32* %5, align 4
  br label %38

38:                                               ; preds = %25, %24, %20
  %39 = load i32, i32* %5, align 4
  ret i32 %39
}

declare dso_local i32 @printf(i8*, ...) #1


!llvm.module.flags = !{!0}
!llvm.ident = !{!1}

!0 = !{i32 1, !"wchar_size", i32 4}
!1 = !{!"clang version 10.0.0-4ubuntu1 "}
